target datalayout = "e-m:e-p270:32:32-p271:32:32-p272:64:64-i64:64-i128:128-f80:128-n8:16:32:64-S128"
target triple = "x86_64-pc-linux-gnu"

%class.ImageFileReaderTable = type { i32, i32, ptr }
%class.SimpleCriticalSection = type { %union.pthread_mutex_t }
%union.pthread_mutex_t = type { %struct.__pthread_mutex_s }
%struct.__pthread_mutex_s = type { i32, i32, i32, i32, i32, i16, i16, %struct.__pthread_internal_list }
%struct.__pthread_internal_list = type { ptr, ptr }
%class.ImageFileReader = type { ptr, i32, i32, ptr, i64, %class.ImageHeader, i64, ptr, ptr, ptr, ptr, ptr, ptr }
%class.ImageHeader = type { i32, i32, i32, i32, i32, i32, i32 }
%class.SimpleCriticalSectionLock = type { ptr }

@_ZN15ImageFileReader13_reader_tableE = hidden global %class.ImageFileReaderTable zeroinitializer, align 8
@_reader_table_lock = hidden global %class.SimpleCriticalSection zeroinitializer, align 8

; Function Attrs: mustprogress nounwind uwtable
define linkonce_odr hidden void @_ZN25SimpleCriticalSectionLockD2Ev(ptr noundef nonnull align 8 dereferenceable(8) %0) unnamed_addr #0 comdat align 2 personality ptr @__gxx_personality_v0 {
  %2 = alloca ptr, align 8
  store ptr %0, ptr %2, align 8
  %3 = load ptr, ptr %2, align 8
  %4 = getelementptr inbounds %class.SimpleCriticalSectionLock, ptr %3, i32 0, i32 0
  %5 = load ptr, ptr %4, align 8
  invoke void @_ZN21SimpleCriticalSection4exitEv(ptr noundef nonnull align 8 dereferenceable(40) %5)
          to label %6 unwind label %7

6:                                                ; preds = %1
  ret void

7:                                                ; preds = %1
  %8 = landingpad { ptr, i32 }
          catch ptr null
  %9 = extractvalue { ptr, i32 } %8, 0
  call void @__clang_call_terminate(ptr %9) #18
  unreachable
}

; Function Attrs: mustprogress nounwind uwtable
define linkonce_odr hidden void @_ZN15ImageFileReader7inc_useEv(ptr noundef nonnull align 8 dereferenceable(120) %0) #0 comdat align 2 {
  %2 = alloca ptr, align 8
  store ptr %0, ptr %2, align 8
  %3 = load ptr, ptr %2, align 8
  %4 = getelementptr inbounds %class.ImageFileReader, ptr %3, i32 0, i32 1
  %5 = load i32, ptr %4, align 8
  %6 = add nsw i32 %5, 1
  store i32 %6, ptr %4, align 8
  ret void
}

; Function Attrs: mustprogress nounwind uwtable
define linkonce_odr hidden noundef ptr @_ZNK15ImageFileReader4nameEv(ptr noundef nonnull align 8 dereferenceable(120) %0) #0 comdat align 2 {
  %2 = alloca ptr, align 8
  store ptr %0, ptr %2, align 8
  %3 = load ptr, ptr %2, align 8
  %4 = getelementptr inbounds %class.ImageFileReader, ptr %3, i32 0, i32 0
  %5 = load ptr, ptr %4, align 8
  ret ptr %5
}

; Function Attrs: mustprogress nounwind uwtable
define linkonce_odr hidden noundef ptr @_ZN20ImageFileReaderTable3getEj(ptr noundef nonnull align 8 dereferenceable(16) %0, i32 noundef %1) #0 comdat align 2 {
  %3 = alloca ptr, align 8
  %4 = alloca i32, align 4
  store ptr %0, ptr %3, align 8
  store i32 %1, ptr %4, align 4
  %5 = load ptr, ptr %3, align 8
  %6 = getelementptr inbounds %class.ImageFileReaderTable, ptr %5, i32 0, i32 2
  %7 = load ptr, ptr %6, align 8
  %8 = load i32, ptr %4, align 4
  %9 = zext i32 %8 to i64
  %10 = getelementptr inbounds ptr, ptr %7, i64 %9
  %11 = load ptr, ptr %10, align 8
  ret ptr %11
}

; Function Attrs: mustprogress nounwind uwtable
define linkonce_odr hidden noundef i32 @_ZN20ImageFileReaderTable5countEv(ptr noundef nonnull align 8 dereferenceable(16) %0) #0 comdat align 2 {
  %2 = alloca ptr, align 8
  store ptr %0, ptr %2, align 8
  %3 = load ptr, ptr %2, align 8
  %4 = getelementptr inbounds %class.ImageFileReaderTable, ptr %3, i32 0, i32 0
  %5 = load i32, ptr %4, align 8
  ret i32 %5
}

; Function Attrs: mustprogress uwtable
define linkonce_odr hidden void @_ZN25SimpleCriticalSectionLockC2EP21SimpleCriticalSection(ptr noundef nonnull align 8 dereferenceable(8) %0, ptr noundef %1) unnamed_addr #1 comdat align 2 {
  %3 = alloca ptr, align 8
  %4 = alloca ptr, align 8
  store ptr %0, ptr %3, align 8
  store ptr %1, ptr %4, align 8
  %5 = load ptr, ptr %3, align 8
  %6 = load ptr, ptr %4, align 8
  %7 = getelementptr inbounds %class.SimpleCriticalSectionLock, ptr %5, i32 0, i32 0
  store ptr %6, ptr %7, align 8
  %8 = getelementptr inbounds %class.SimpleCriticalSectionLock, ptr %5, i32 0, i32 0
  %9 = load ptr, ptr %8, align 8
  call void @_ZN21SimpleCriticalSection5enterEv(ptr noundef nonnull align 8 dereferenceable(40) %9)
  ret void
}

; Function Attrs: mustprogress uwtable
define hidden noundef ptr @_ZN15ImageFileReader10find_imageEPKc(ptr noundef %0) #1 align 2 personality ptr @__gxx_personality_v0 {
  %2 = alloca ptr, align 8
  %3 = alloca ptr, align 8
  %4 = alloca %class.SimpleCriticalSectionLock, align 8
  %5 = alloca i32, align 4
  %6 = alloca ptr, align 8
  %7 = alloca i32, align 4
  %8 = alloca ptr, align 8
  %9 = alloca i32, align 4
  store ptr %0, ptr %3, align 8
  call void @_ZN25SimpleCriticalSectionLockC2EP21SimpleCriticalSection(ptr noundef nonnull align 8 dereferenceable(8) %4, ptr noundef @_reader_table_lock)
  store i32 0, ptr %5, align 4
  br label %10

10:                                               ; preds = %34, %1
  %11 = load i32, ptr %5, align 4
  %12 = invoke noundef i32 @_ZN20ImageFileReaderTable5countEv(ptr noundef nonnull align 8 dereferenceable(16) @_ZN15ImageFileReader13_reader_tableE)
          to label %13 unwind label %29

13:                                               ; preds = %10
  %14 = icmp ult i32 %11, %12
  br i1 %14, label %15, label %37

15:                                               ; preds = %13
  %16 = load i32, ptr %5, align 4
  %17 = invoke noundef ptr @_ZN20ImageFileReaderTable3getEj(ptr noundef nonnull align 8 dereferenceable(16) @_ZN15ImageFileReader13_reader_tableE, i32 noundef %16)
          to label %18 unwind label %29

18:                                               ; preds = %15
  store ptr %17, ptr %8, align 8
  %19 = load ptr, ptr %8, align 8
  %20 = invoke noundef ptr @_ZNK15ImageFileReader4nameEv(ptr noundef nonnull align 8 dereferenceable(120) %19)
          to label %21 unwind label %29

21:                                               ; preds = %18
  %22 = load ptr, ptr %3, align 8
  %23 = call i32 @strcmp(ptr noundef %20, ptr noundef %22) #12
  %24 = icmp eq i32 %23, 0
  br i1 %24, label %25, label %33

25:                                               ; preds = %21
  %26 = load ptr, ptr %8, align 8
  invoke void @_ZN15ImageFileReader7inc_useEv(ptr noundef nonnull align 8 dereferenceable(120) %26)
          to label %27 unwind label %29

27:                                               ; preds = %25
  %28 = load ptr, ptr %8, align 8
  store ptr %28, ptr %2, align 8
  store i32 1, ptr %9, align 4
  br label %38

29:                                               ; preds = %25, %18, %15, %10
  %30 = landingpad { ptr, i32 }
          cleanup
  %31 = extractvalue { ptr, i32 } %30, 0
  store ptr %31, ptr %6, align 8
  %32 = extractvalue { ptr, i32 } %30, 1
  store i32 %32, ptr %7, align 4
  call void @_ZN25SimpleCriticalSectionLockD2Ev(ptr noundef nonnull align 8 dereferenceable(8) %4) #14
  br label %40

33:                                               ; preds = %21
  br label %34

34:                                               ; preds = %33
  %35 = load i32, ptr %5, align 4
  %36 = add i32 %35, 1
  store i32 %36, ptr %5, align 4
  br label %10, !llvm.loop !15

37:                                               ; preds = %13
  store ptr null, ptr %2, align 8
  store i32 1, ptr %9, align 4
  br label %38

38:                                               ; preds = %37, %27
  call void @_ZN25SimpleCriticalSectionLockD2Ev(ptr noundef nonnull align 8 dereferenceable(8) %4) #14
  %39 = load ptr, ptr %2, align 8
  ret ptr %39

40:                                               ; preds = %29
  %41 = load ptr, ptr %6, align 8
  %42 = load i32, ptr %7, align 4
  %43 = insertvalue { ptr, i32 } poison, ptr %41, 0
  %44 = insertvalue { ptr, i32 } %43, i32 %42, 1
  resume { ptr, i32 } %44
}