; Function Attrs: mustprogress uwtable
define hidden noundef ptr @_ZN15ImageFileReader10find_imageEPKc(ptr nocapture noundef readonly %0) local_unnamed_addr #1 align 2 personality ptr @__gxx_personality_v0 {
  tail call void @_ZN21SimpleCriticalSection5enterEv(ptr noundef nonnull align 8 dereferenceable(40) @_reader_table_lock)
  %2 = load i32, ptr @_ZN15ImageFileReader13_reader_tableE, align 8
  %.not = icmp eq i32 %2, 0
  br i1 %.not, label %.loopexit, label %.lr.ph

.lr.ph:                                           ; preds = %1
  %3 = load ptr, ptr getelementptr inbounds (i8, ptr @_ZN15ImageFileReader13_reader_tableE, i64 8), align 8
  %wide.trip.count = zext i32 %2 to i64
  br label %5

4:                                                ; preds = %5
  %indvars.iv.next = add nuw nsw i64 %indvars.iv, 1
  %exitcond.not = icmp eq i64 %indvars.iv.next, %wide.trip.count
  br i1 %exitcond.not, label %.loopexit, label %5, !llvm.loop !14

5:                                                ; preds = %.lr.ph, %4
  %indvars.iv = phi i64 [ 0, %.lr.ph ], [ %indvars.iv.next, %4 ]
  %6 = getelementptr inbounds ptr, ptr %3, i64 %indvars.iv
  %7 = load ptr, ptr %6, align 8
  %8 = load ptr, ptr %7, align 8
  %9 = tail call i32 @strcmp(ptr noundef nonnull dereferenceable(1) %8, ptr noundef nonnull dereferenceable(1) %0) #21
  %10 = icmp eq i32 %9, 0
  br i1 %10, label %11, label %4

11:                                               ; preds = %5
  %12 = getelementptr inbounds i8, ptr %7, i64 8
  %13 = load i32, ptr %12, align 8
  %14 = add nsw i32 %13, 1
  store i32 %14, ptr %12, align 8
  br label %.loopexit

.loopexit:                                        ; preds = %4, %1, %11
  %.0 = phi ptr [ %7, %11 ], [ null, %1 ], [ null, %4 ]
  invoke void @_ZN21SimpleCriticalSection4exitEv(ptr noundef nonnull align 8 dereferenceable(40) @_reader_table_lock)
          to label %_ZN25SimpleCriticalSectionLockD2Ev.exit unwind label %15

15:                                               ; preds = %.loopexit
  %16 = landingpad { ptr, i32 }
          catch ptr null
  %17 = extractvalue { ptr, i32 } %16, 0
  tail call void @__clang_call_terminate(ptr %17) #27
  unreachable

_ZN25SimpleCriticalSectionLockD2Ev.exit:          ; preds = %.loopexit
  ret ptr %.0
}